target datalayout = "e-m:e-p270:32:32-p271:32:32-p272:64:64-i64:64-i128:128-f80:128-n8:16:32:64-S128"
target triple = "x86_64-pc-linux-gnu"

%class.mpff_manager = type <{ i32, i32, %class.svector, i32, i8, [3 x i8], %class.id_gen, [4 x %class.svector], %class.svector, %class.mpff, [8 x i8] }>
%class.id_gen = type { i32, %class.svector }
%class.svector = type { %class.vector }
%class.vector = type { ptr }
%class.mpff = type { i32, i32 }

; Function Attrs: mustprogress nounwind uwtable
define linkonce_odr hidden noundef ptr @_ZNK6vectorIjLb0EjE4dataEv(ptr noundef nonnull align 8 dereferenceable(8) %0) #5 comdat align 2 {
  %2 = alloca ptr, align 8
  store ptr %0, ptr %2, align 8, !tbaa !32
  %3 = load ptr, ptr %2, align 8
  %4 = getelementptr inbounds nuw %class.vector, ptr %3, i32 0, i32 0
  %5 = load ptr, ptr %4, align 8, !tbaa !35
  ret ptr %5
}

; Function Attrs: mustprogress nounwind uwtable
define linkonce_odr hidden noundef zeroext i1 @_ZN12mpff_manager6is_negERK4mpff(ptr noundef nonnull align 4 dereferenceable(8) %0) #5 comdat align 2 {
  %2 = alloca ptr, align 8
  store ptr %0, ptr %2, align 8, !tbaa !29
  %3 = load ptr, ptr %2, align 8, !tbaa !29
  %4 = load i32, ptr %3, align 4
  %5 = and i32 %4, 1
  %6 = icmp ne i32 %5, 0
  ret i1 %6
}

; Function Attrs: mustprogress uwtable
define linkonce_odr hidden noundef ptr @_ZNK12mpff_manager3sigERK4mpff(ptr noundef nonnull align 8 dereferenceable(89) %0, ptr noundef nonnull align 4 dereferenceable(8) %1) #4 comdat align 2 {
  %3 = alloca ptr, align 8
  %4 = alloca ptr, align 8
  store ptr %0, ptr %3, align 8, !tbaa !3
  store ptr %1, ptr %4, align 8, !tbaa !29
  %5 = load ptr, ptr %3, align 8
  %6 = getelementptr inbounds nuw %class.mpff_manager, ptr %5, i32 0, i32 2
  %7 = call noundef ptr @_ZNK6vectorIjLb0EjE4dataEv(ptr noundef nonnull align 8 dereferenceable(8) %6)
  %8 = load ptr, ptr %4, align 8, !tbaa !29
  %9 = load i32, ptr %8, align 4
  %10 = lshr i32 %9, 1
  %11 = getelementptr inbounds nuw %class.mpff_manager, ptr %5, i32 0, i32 0
  %12 = load i32, ptr %11, align 8, !tbaa !10
  %13 = mul i32 %10, %12
  %14 = zext i32 %13 to i64
  %15 = getelementptr inbounds nuw i32, ptr %7, i64 %14
  ret ptr %15
}

; Function Attrs: mustprogress nounwind uwtable
define linkonce_odr hidden noundef zeroext i1 @_ZN12mpff_manager7is_zeroERK4mpff(ptr noundef nonnull align 4 dereferenceable(8) %0) #5 comdat align 2 {
  %2 = alloca ptr, align 8
  store ptr %0, ptr %2, align 8, !tbaa !29
  %3 = load ptr, ptr %2, align 8, !tbaa !29
  %4 = load i32, ptr %3, align 4
  %5 = lshr i32 %4, 1
  %6 = icmp eq i32 %5, 0
  ret i1 %6
}

; Function Attrs: mustprogress uwtable
define hidden noundef i64 @_ZNK12mpff_manager9get_int64ERK4mpff(ptr noundef nonnull align 8 dereferenceable(89) %0, ptr noundef nonnull align 4 dereferenceable(8) %1) #4 align 2 {
  %3 = alloca i64, align 8
  %4 = alloca ptr, align 8
  %5 = alloca ptr, align 8
  %6 = alloca i32, align 4
  %7 = alloca ptr, align 8
  %8 = alloca i32, align 4
  %9 = alloca i64, align 8
  store ptr %0, ptr %4, align 8, !tbaa !3
  store ptr %1, ptr %5, align 8, !tbaa !29
  %10 = load ptr, ptr %4, align 8
  %11 = load ptr, ptr %5, align 8, !tbaa !29
  %12 = call noundef zeroext i1 @_ZN12mpff_manager7is_zeroERK4mpff(ptr noundef nonnull align 4 dereferenceable(8) %11)
  br i1 %12, label %13, label %14

13:                                               ; preds = %2
  store i64 0, ptr %3, align 8
  br label %58

14:                                               ; preds = %2
  call void @llvm.lifetime.start.p0(i64 4, ptr %6) #3
  %15 = load ptr, ptr %5, align 8, !tbaa !29
  %16 = getelementptr inbounds nuw %class.mpff, ptr %15, i32 0, i32 1
  %17 = load i32, ptr %16, align 4, !tbaa !31
  %18 = sub nsw i32 0, %17
  %19 = sext i32 %18 to i64
  %20 = getelementptr inbounds nuw %class.mpff_manager, ptr %10, i32 0, i32 0
  %21 = load i32, ptr %20, align 8, !tbaa !10
  %22 = sub i32 %21, 2
  %23 = zext i32 %22 to i64
  %24 = mul i64 32, %23
  %25 = sub i64 %19, %24
  %26 = trunc i64 %25 to i32
  store i32 %26, ptr %6, align 4, !tbaa !8
  call void @llvm.lifetime.start.p0(i64 8, ptr %7) #3
  %27 = load ptr, ptr %5, align 8, !tbaa !29
  %28 = call noundef ptr @_ZNK12mpff_manager3sigERK4mpff(ptr noundef nonnull align 8 dereferenceable(89) %10, ptr noundef nonnull align 4 dereferenceable(8) %27)
  %29 = getelementptr inbounds nuw %class.mpff_manager, ptr %10, i32 0, i32 0
  %30 = load i32, ptr %29, align 8, !tbaa !10
  %31 = sub i32 %30, 2
  %32 = zext i32 %31 to i64
  %33 = getelementptr inbounds nuw i32, ptr %28, i64 %32
  store ptr %33, ptr %7, align 8, !tbaa !43
  %34 = load i32, ptr %6, align 4, !tbaa !8
  %35 = icmp eq i32 %34, 0
  br i1 %35, label %36, label %44

36:                                               ; preds = %14
  %37 = load ptr, ptr %7, align 8, !tbaa !43
  %38 = load i64, ptr %37, align 8, !tbaa !45
  %39 = icmp eq i64 %38, -9223372036854775808
  br i1 %39, label %40, label %44

40:                                               ; preds = %36
  %41 = load ptr, ptr %5, align 8, !tbaa !29
  %42 = call noundef zeroext i1 @_ZN12mpff_manager6is_negERK4mpff(ptr noundef nonnull align 4 dereferenceable(8) %41)
  br i1 %42, label %43, label %44

43:                                               ; preds = %40
  store i64 -9223372036854775808, ptr %3, align 8
  store i32 1, ptr %8, align 4
  br label %57

44:                                               ; preds = %40, %36, %14
  call void @llvm.lifetime.start.p0(i64 8, ptr %9) #3
  %45 = load ptr, ptr %7, align 8, !tbaa !43
  %46 = load i64, ptr %45, align 8, !tbaa !45
  %47 = load i32, ptr %6, align 4, !tbaa !8
  %48 = zext i32 %47 to i64
  %49 = lshr i64 %46, %48
  store i64 %49, ptr %9, align 8, !tbaa !45
  %50 = load ptr, ptr %5, align 8, !tbaa !29
  %51 = call noundef zeroext i1 @_ZN12mpff_manager6is_negERK4mpff(ptr noundef nonnull align 4 dereferenceable(8) %50)
  br i1 %51, label %52, label %55

52:                                               ; preds = %44
  %53 = load i64, ptr %9, align 8, !tbaa !45
  %54 = sub nsw i64 0, %53
  store i64 %54, ptr %9, align 8, !tbaa !45
  br label %55

55:                                               ; preds = %52, %44
  %56 = load i64, ptr %9, align 8, !tbaa !45
  store i64 %56, ptr %3, align 8
  store i32 1, ptr %8, align 4
  call void @llvm.lifetime.end.p0(i64 8, ptr %9) #3
  br label %57

57:                                               ; preds = %55, %43
  call void @llvm.lifetime.end.p0(i64 8, ptr %7) #3
  call void @llvm.lifetime.end.p0(i64 4, ptr %6) #3
  br label %58

58:                                               ; preds = %57, %13
  %59 = load i64, ptr %3, align 8
  ret i64 %59
}