; Function Attrs: mustprogress nofree norecurse nosync nounwind willreturn memory(read, inaccessiblemem: none) uwtable
define hidden noundef i64 @_ZNK12mpff_manager9get_int64ERK4mpff(ptr noundef nonnull readonly align 8 captures(none) dereferenceable(89) %0, ptr noundef nonnull readonly align 4 captures(none) dereferenceable(8) %1) local_unnamed_addr #10 align 2 {
  %3 = load i32, ptr %1, align 4
  %4 = icmp ult i32 %3, 2
  br i1 %4, label %29, label %5

5:                                                ; preds = %2
  %6 = getelementptr inbounds nuw i8, ptr %1, i64 4
  %7 = load i32, ptr %6, align 4, !tbaa !35
  %8 = load i32, ptr %0, align 8, !tbaa !13
  %9 = shl i32 %8, 5
  %10 = add i32 %9, %7
  %.neg14 = sub i32 64, %10
  %11 = getelementptr inbounds nuw i8, ptr %0, i64 8
  %12 = load ptr, ptr %11, align 8, !tbaa !3
  %13 = lshr i32 %3, 1
  %14 = mul i32 %8, %13
  %15 = zext i32 %14 to i64
  %16 = getelementptr inbounds nuw i32, ptr %12, i64 %15
  %17 = add i32 %8, -2
  %18 = zext i32 %17 to i64
  %19 = getelementptr inbounds nuw i32, ptr %16, i64 %18
  %20 = icmp eq i32 %10, 64
  %.pre = load i64, ptr %19, align 8, !tbaa !42
  br i1 %20, label %21, label %._crit_edge

._crit_edge:                                      ; preds = %5
  %.pre16 = and i32 %3, 1
  br label %25

21:                                               ; preds = %5
  %22 = icmp eq i64 %.pre, -9223372036854775808
  %23 = and i32 %3, 1
  %24 = icmp ne i32 %23, 0
  %or.cond = and i1 %24, %22
  br i1 %or.cond, label %29, label %25

25:                                               ; preds = %._crit_edge, %21
  %.pre-phi = phi i32 [ %.pre16, %._crit_edge ], [ %23, %21 ]
  %26 = zext nneg i32 %.neg14 to i64
  %27 = lshr i64 %.pre, %26
  %.not = icmp eq i32 %.pre-phi, 0
  %28 = sub nsw i64 0, %27
  %spec.select = select i1 %.not, i64 %27, i64 %28
  br label %29

29:                                               ; preds = %21, %25, %2
  %.012 = phi i64 [ 0, %2 ], [ %spec.select, %25 ], [ -9223372036854775808, %21 ]
  ret i64 %.012
}